; Function Attrs: nounwind uwtable
define i32 @uv_fs_access(ptr noundef %loop, ptr noundef %req, ptr noundef %path, i32 noundef %flags, ptr noundef %cb) local_unnamed_addr #0 {
entry:
  %cmp = icmp eq ptr %req, null
  br i1 %cmp, label %do.end26, label %do.body1

do.body1:                                         ; preds = %entry
  %type = getelementptr inbounds nuw i8, ptr %req, i64 8
  store i32 6, ptr %type, align 8
  %fs_type = getelementptr inbounds nuw i8, ptr %req, i64 64
  store i32 12, ptr %fs_type, align 8
  %result = getelementptr inbounds nuw i8, ptr %req, i64 88
  %loop2 = getelementptr inbounds nuw i8, ptr %req, i64 72
  tail call void @llvm.memset.p0.i64(ptr noundef nonnull align 8 dereferenceable(16) %result, i8 0, i64 16, i1 false)
  store ptr %loop, ptr %loop2, align 8
  %path3 = getelementptr inbounds nuw i8, ptr %req, i64 104
  store ptr null, ptr %path3, align 8
  %new_path = getelementptr inbounds nuw i8, ptr %req, i64 272
  store ptr null, ptr %new_path, align 8
  %bufs = getelementptr inbounds nuw i8, ptr %req, i64 296
  store ptr null, ptr %bufs, align 8
  %cb4 = getelementptr inbounds nuw i8, ptr %req, i64 80
  store ptr %cb, ptr %cb4, align 8
  %cmp7 = icmp eq ptr %cb, null
  br i1 %cmp7, label %if.else23, label %if.else

if.else:                                          ; preds = %do.body1
  %call = tail call ptr @uv__strdup(ptr noundef %path) #15
  store ptr %call, ptr %path3, align 8
  %cmp12 = icmp eq ptr %call, null
  br i1 %cmp12, label %do.end26, label %do.body21

do.body21:                                        ; preds = %if.else
  %flags17 = getelementptr inbounds nuw i8, ptr %req, i64 284
  store i32 %flags, ptr %flags17, align 4
  %active_reqs = getelementptr inbounds nuw i8, ptr %loop, i64 32
  %0 = load i32, ptr %active_reqs, align 8
  %inc = add i32 %0, 1
  store i32 %inc, ptr %active_reqs, align 8
  %work_req = getelementptr inbounds nuw i8, ptr %req, i64 336
  tail call void @uv__work_submit(ptr noundef %loop, ptr noundef nonnull %work_req, i32 noundef 1, ptr noundef nonnull @uv__fs_work, ptr noundef nonnull @uv__fs_done) #15
  br label %do.end26

if.else23:                                        ; preds = %do.body1
  store ptr %path, ptr %path3, align 8
  %flags1722 = getelementptr inbounds nuw i8, ptr %req, i64 284
  store i32 %flags, ptr %flags1722, align 4
  %work_req24 = getelementptr inbounds nuw i8, ptr %req, i64 336
  tail call void @uv__fs_work(ptr noundef nonnull %work_req24)
  %1 = load i64, ptr %result, align 8
  %conv = trunc i64 %1 to i32
  br label %do.end26

do.end26:                                         ; preds = %if.else, %entry, %if.else23, %do.body21
  %retval.0 = phi i32 [ 0, %do.body21 ], [ %conv, %if.else23 ], [ -22, %entry ], [ -12, %if.else ]
  ret i32 %retval.0
}